target datalayout = "e-m:e-p270:32:32-p271:32:32-p272:64:64-i64:64-i128:128-f80:128-n8:16:32:64-S128"
target triple = "x86_64-pc-linux-gnu"

%struct.H5FD_driver_prop_t = type { i64, ptr, ptr }

@H5P_init_g = external global i8, align 1
@H5_libterm_g = external global i8, align 1
@.str.2 = private unnamed_addr constant [101 x i8] c"generated/home/dtcxzyw/WorkSpace/Projects/compilers/llvm-opt-benchmark/bench/hdf5/hdf5/src/H5Pfapl.c\00", align 1
@H5E_PLIST_g = external global i64, align 8
@H5E_CANTDEC_g = external global i64, align 8
@H5E_CANTFREE_g = external global i64, align 8
@__func__.H5P__file_driver_free = private unnamed_addr constant [22 x i8] c"H5P__file_driver_free\00", align 1
@.str.188 = private unnamed_addr constant [32 x i8] c"driver info free request failed\00", align 1
@.str.189 = private unnamed_addr constant [46 x i8] c"can't decrement reference count for driver ID\00", align 1

; Function Attrs: nounwind uwtable
define internal i32 @H5P__file_driver_free(ptr noundef %0) #0 {
  %2 = alloca i32, align 4
  %3 = alloca ptr, align 8
  %4 = alloca i32, align 4
  %5 = alloca i8, align 1
  %6 = alloca ptr, align 8
  %7 = alloca i32, align 4
  store ptr %0, ptr %3, align 8, !tbaa !32
  call void @llvm.lifetime.start.p0(i64 4, ptr %4) #10
  store i32 0, ptr %4, align 4, !tbaa !20
  call void @llvm.lifetime.start.p0(i64 1, ptr %5) #10
  store i8 0, ptr %5, align 1, !tbaa !22
  %8 = load i8, ptr @H5P_init_g, align 1, !tbaa !22, !range !24, !noundef !25
  %9 = trunc i8 %8 to i1
  br i1 %9, label %14, label %10

10:                                               ; preds = %1
  %11 = load i8, ptr @H5_libterm_g, align 1, !tbaa !22, !range !24, !noundef !25
  %12 = trunc i8 %11 to i1
  %13 = xor i1 %12, true
  br label %14

14:                                               ; preds = %10, %1
  %15 = phi i1 [ true, %1 ], [ %13, %10 ]
  %16 = xor i1 %15, true
  %17 = xor i1 %16, true
  %18 = zext i1 %17 to i32
  %19 = sext i32 %18 to i64
  %20 = call i64 @llvm.expect.i64(i64 %19, i64 1)
  %21 = icmp ne i64 %20, 0
  br i1 %21, label %22, label %101

22:                                               ; preds = %14
  %23 = load ptr, ptr %3, align 8, !tbaa !32
  %24 = icmp ne ptr %23, null
  br i1 %24, label %25, label %99

25:                                               ; preds = %22
  call void @llvm.lifetime.start.p0(i64 8, ptr %6) #10
  %26 = load ptr, ptr %3, align 8, !tbaa !32
  store ptr %26, ptr %6, align 8, !tbaa !32
  %27 = load ptr, ptr %6, align 8, !tbaa !32
  %28 = getelementptr inbounds nuw %struct.H5FD_driver_prop_t, ptr %27, i32 0, i32 0
  %29 = load i64, ptr %28, align 8, !tbaa !10
  %30 = icmp sgt i64 %29, 0
  br i1 %30, label %31, label %95

31:                                               ; preds = %25
  %32 = load ptr, ptr %6, align 8, !tbaa !32
  %33 = getelementptr inbounds nuw %struct.H5FD_driver_prop_t, ptr %32, i32 0, i32 1
  %34 = load ptr, ptr %33, align 8, !tbaa !13
  %35 = icmp ne ptr %34, null
  br i1 %35, label %36, label %65

36:                                               ; preds = %31
  %37 = load ptr, ptr %6, align 8, !tbaa !32
  %38 = getelementptr inbounds nuw %struct.H5FD_driver_prop_t, ptr %37, i32 0, i32 0
  %39 = load i64, ptr %38, align 8, !tbaa !10
  %40 = load ptr, ptr %6, align 8, !tbaa !32
  %41 = getelementptr inbounds nuw %struct.H5FD_driver_prop_t, ptr %40, i32 0, i32 1
  %42 = load ptr, ptr %41, align 8, !tbaa !13
  %43 = call i32 @H5FD_free_driver_info(i64 noundef %39, ptr noundef %42)
  %44 = icmp slt i32 %43, 0
  br i1 %44, label %45, label %64

45:                                               ; preds = %36
  br label %46

46:                                               ; preds = %45
  br label %47

47:                                               ; preds = %46
  br label %48

48:                                               ; preds = %47
  %49 = load i64, ptr @H5E_PLIST_g, align 8, !tbaa !8
  %50 = load i64, ptr @H5E_CANTFREE_g, align 8, !tbaa !8
  %51 = call i32 (ptr, ptr, i32, i64, i64, ptr, ...) @H5E_printf_stack(ptr noundef @.str.2, ptr noundef @__func__.H5P__file_driver_free, i32 noundef 1735, i64 noundef %49, i64 noundef %50, ptr noundef @.str.188)
  br label %52

52:                                               ; preds = %48
  br label %53

53:                                               ; preds = %52
  store i8 1, ptr %5, align 1, !tbaa !22
  %54 = load i8, ptr %5, align 1, !tbaa !22, !range !24, !noundef !25
  %55 = trunc i8 %54 to i1
  %56 = zext i1 %55 to i8
  store i8 %56, ptr %5, align 1, !tbaa !22
  br label %57

57:                                               ; preds = %53
  br label %58

58:                                               ; preds = %57
  br label %59

59:                                               ; preds = %58
  store i32 -1, ptr %4, align 4, !tbaa !20
  store i32 10, ptr %7, align 4
  br label %96

60:                                               ; No predecessors!
  br label %61

61:                                               ; preds = %60
  br label %62

62:                                               ; preds = %61
  br label %63

63:                                               ; preds = %62
  br label %64

64:                                               ; preds = %63, %36
  br label %65

65:                                               ; preds = %64, %31
  %66 = load ptr, ptr %6, align 8, !tbaa !32
  %67 = getelementptr inbounds nuw %struct.H5FD_driver_prop_t, ptr %66, i32 0, i32 2
  %68 = load ptr, ptr %67, align 8, !tbaa !14
  %69 = call ptr @H5MM_xfree_const(ptr noundef %68)
  %70 = load ptr, ptr %6, align 8, !tbaa !32
  %71 = getelementptr inbounds nuw %struct.H5FD_driver_prop_t, ptr %70, i32 0, i32 0
  %72 = load i64, ptr %71, align 8, !tbaa !10
  %73 = call i32 @H5I_dec_ref(i64 noundef %72)
  %74 = icmp slt i32 %73, 0
  br i1 %74, label %75, label %94

75:                                               ; preds = %65
  br label %76

76:                                               ; preds = %75
  br label %77

77:                                               ; preds = %76
  br label %78

78:                                               ; preds = %77
  %79 = load i64, ptr @H5E_PLIST_g, align 8, !tbaa !8
  %80 = load i64, ptr @H5E_CANTDEC_g, align 8, !tbaa !8
  %81 = call i32 (ptr, ptr, i32, i64, i64, ptr, ...) @H5E_printf_stack(ptr noundef @.str.2, ptr noundef @__func__.H5P__file_driver_free, i32 noundef 1742, i64 noundef %79, i64 noundef %80, ptr noundef @.str.189)
  br label %82

82:                                               ; preds = %78
  br label %83

83:                                               ; preds = %82
  store i8 1, ptr %5, align 1, !tbaa !22
  %84 = load i8, ptr %5, align 1, !tbaa !22, !range !24, !noundef !25
  %85 = trunc i8 %84 to i1
  %86 = zext i1 %85 to i8
  store i8 %86, ptr %5, align 1, !tbaa !22
  br label %87

87:                                               ; preds = %83
  br label %88

88:                                               ; preds = %87
  br label %89

89:                                               ; preds = %88
  store i32 -1, ptr %4, align 4, !tbaa !20
  store i32 10, ptr %7, align 4
  br label %96

90:                                               ; No predecessors!
  br label %91

91:                                               ; preds = %90
  br label %92

92:                                               ; preds = %91
  br label %93

93:                                               ; preds = %92
  br label %94

94:                                               ; preds = %93, %65
  br label %95

95:                                               ; preds = %94, %25
  store i32 0, ptr %7, align 4
  br label %96

96:                                               ; preds = %89, %59, %95
  call void @llvm.lifetime.end.p0(i64 8, ptr %6) #10
  %97 = load i32, ptr %7, align 4
  switch i32 %97, label %103 [
    i32 0, label %98
    i32 10, label %100
  ]

98:                                               ; preds = %96
  br label %99

99:                                               ; preds = %98, %22
  br label %100

100:                                              ; preds = %99, %96
  br label %101

101:                                              ; preds = %100, %14
  %102 = load i32, ptr %4, align 4, !tbaa !20
  store i32 %102, ptr %2, align 4
  store i32 1, ptr %7, align 4
  br label %103

103:                                              ; preds = %101, %96
  call void @llvm.lifetime.end.p0(i64 1, ptr %5) #10
  call void @llvm.lifetime.end.p0(i64 4, ptr %4) #10
  %104 = load i32, ptr %2, align 4
  ret i32 %104
}