; Function Attrs: nounwind uwtable
define internal fastcc range(i32 -1, 1) i32 @H5P__file_driver_free(ptr noundef readonly captures(address_is_null) %0) unnamed_addr #0 {
  %2 = load i8, ptr @H5P_init_g, align 1, !tbaa !16, !range !18, !noundef !19
  %3 = trunc nuw i8 %2 to i1
  %4 = load i8, ptr @H5_libterm_g, align 1, !range !18
  %5 = trunc nuw i8 %4 to i1
  %6 = xor i1 %5, true
  %7 = select i1 %3, i1 true, i1 %6
  %8 = icmp ne ptr %0, null
  %or.cond = and i1 %8, %7
  br i1 %or.cond, label %9, label %33, !prof !126

9:                                                ; preds = %1
  %10 = load i64, ptr %0, align 8, !tbaa !7
  %11 = icmp sgt i64 %10, 0
  br i1 %11, label %12, label %33

12:                                               ; preds = %9
  %13 = getelementptr inbounds nuw i8, ptr %0, i64 8
  %14 = load ptr, ptr %13, align 8, !tbaa !22
  %.not = icmp eq ptr %14, null
  br i1 %.not, label %22, label %15

15:                                               ; preds = %12
  %16 = tail call i32 @H5FD_free_driver_info(i64 noundef %10, ptr noundef nonnull %14) #15
  %17 = icmp slt i32 %16, 0
  br i1 %17, label %18, label %22

18:                                               ; preds = %15
  %19 = load i64, ptr @H5E_PLIST_g, align 8, !tbaa !3
  %20 = load i64, ptr @H5E_CANTFREE_g, align 8, !tbaa !3
  %21 = tail call i32 (ptr, ptr, i32, i64, i64, ptr, ...) @H5E_printf_stack(ptr noundef nonnull @.str.2, ptr noundef nonnull @__func__.H5P__file_driver_free, i32 noundef 1735, i64 noundef %19, i64 noundef %20, ptr noundef nonnull @.str.188) #15
  br label %33

22:                                               ; preds = %15, %12
  %23 = getelementptr inbounds nuw i8, ptr %0, i64 16
  %24 = load ptr, ptr %23, align 8, !tbaa !23
  %25 = tail call ptr @H5MM_xfree_const(ptr noundef %24) #15
  %26 = load i64, ptr %0, align 8, !tbaa !7
  %27 = tail call i32 @H5I_dec_ref(i64 noundef %26) #15
  %28 = icmp slt i32 %27, 0
  br i1 %28, label %29, label %33

29:                                               ; preds = %22
  %30 = load i64, ptr @H5E_PLIST_g, align 8, !tbaa !3
  %31 = load i64, ptr @H5E_CANTDEC_g, align 8, !tbaa !3
  %32 = tail call i32 (ptr, ptr, i32, i64, i64, ptr, ...) @H5E_printf_stack(ptr noundef nonnull @.str.2, ptr noundef nonnull @__func__.H5P__file_driver_free, i32 noundef 1742, i64 noundef %30, i64 noundef %31, ptr noundef nonnull @.str.189) #15
  br label %33

33:                                               ; preds = %18, %29, %22, %9, %1
  %.013 = phi i32 [ 0, %1 ], [ -1, %18 ], [ -1, %29 ], [ 0, %22 ], [ 0, %9 ]
  ret i32 %.013
}